target datalayout = "e-m:e-p270:32:32-p271:32:32-p272:64:64-i64:64-i128:128-f80:128-n8:16:32:64-S128"
target triple = "x86_64-pc-linux-gnu"

@g_assert_poison = external global ptr, align 8
@.str = private unnamed_addr constant [45 x i8] c"src/hotspot/cpu/x86/sharedRuntime_x86_64.cpp\00", align 1
@.str.15 = private unnamed_addr constant [46 x i8] c"guarantee(longwords <= 8192 / divisor) failed\00", align 1
@.str.16 = private unnamed_addr constant [8 x i8] c"must be\00", align 1

; Function Attrs: mustprogress nounwind uwtable
define internal noundef i64 @_ZL4swapm(i64 noundef %0) #1 {
  %2 = alloca i64, align 8
  store i64 %0, ptr %2, align 8
  %3 = load i64, ptr %2, align 8
  %4 = shl i64 %3, 32
  %5 = load i64, ptr %2, align 8
  %6 = lshr i64 %5, 32
  %7 = or i64 %4, %6
  ret i64 %7
}

; Function Attrs: mustprogress nounwind uwtable
define internal void @_ZL13reverse_wordsPmS_i(ptr noundef %0, ptr noundef %1, i32 noundef %2) #1 {
  %4 = alloca ptr, align 8
  %5 = alloca ptr, align 8
  %6 = alloca i32, align 4
  store ptr %0, ptr %4, align 8
  store ptr %1, ptr %5, align 8
  store i32 %2, ptr %6, align 4
  %7 = load i32, ptr %6, align 4
  %8 = load ptr, ptr %5, align 8
  %9 = sext i32 %7 to i64
  %10 = getelementptr inbounds i64, ptr %8, i64 %9
  store ptr %10, ptr %5, align 8
  br label %11

11:                                               ; preds = %15, %3
  %12 = load i32, ptr %6, align 4
  %13 = add nsw i32 %12, -1
  store i32 %13, ptr %6, align 4
  %14 = icmp sgt i32 %12, 0
  br i1 %14, label %15, label %24

15:                                               ; preds = %11
  %16 = load ptr, ptr %5, align 8
  %17 = getelementptr inbounds i64, ptr %16, i32 -1
  store ptr %17, ptr %5, align 8
  %18 = load ptr, ptr %4, align 8
  %19 = load i64, ptr %18, align 8
  %20 = call noundef i64 @_ZL4swapm(i64 noundef %19)
  %21 = load ptr, ptr %5, align 8
  store i64 %20, ptr %21, align 8
  %22 = load ptr, ptr %4, align 8
  %23 = getelementptr inbounds i64, ptr %22, i32 1
  store ptr %23, ptr %4, align 8
  br label %11, !llvm.loop !37

24:                                               ; preds = %11
  ret void
}

; Function Attrs: mustprogress nounwind uwtable
define hidden void @_ZN13SharedRuntime19montgomery_multiplyEPiS0_S0_ilS0_(ptr noundef %0, ptr noundef %1, ptr noundef %2, i32 noundef %3, i64 noundef %4, ptr noundef %5) #1 align 2 {
  %7 = alloca ptr, align 8
  %8 = alloca ptr, align 8
  %9 = alloca ptr, align 8
  %10 = alloca i32, align 4
  %11 = alloca i64, align 8
  %12 = alloca ptr, align 8
  %13 = alloca i32, align 4
  %14 = alloca i32, align 4
  %15 = alloca i32, align 4
  %16 = alloca ptr, align 8
  %17 = alloca ptr, align 8
  %18 = alloca ptr, align 8
  %19 = alloca ptr, align 8
  %20 = alloca ptr, align 8
  store ptr %0, ptr %7, align 8
  store ptr %1, ptr %8, align 8
  store ptr %2, ptr %9, align 8
  store i32 %3, ptr %10, align 4
  store i64 %4, ptr %11, align 8
  store ptr %5, ptr %12, align 8
  %21 = load i32, ptr %10, align 4
  %22 = sdiv i32 %21, 2
  store i32 %22, ptr %13, align 4
  store i32 32, ptr %14, align 4
  br label %23

23:                                               ; preds = %6
  %24 = load i32, ptr %13, align 4
  %25 = load i32, ptr %14, align 4
  %26 = sdiv i32 8192, %25
  %27 = icmp sle i32 %24, %26
  br i1 %27, label %30, label %28

28:                                               ; preds = %23
  %29 = load ptr, ptr @g_assert_poison, align 8
  store i8 88, ptr %29, align 1
  call void (ptr, i32, ptr, ptr, ...) @_Z15report_vm_errorPKciS0_S0_z(ptr noundef @.str, i32 noundef 3620, ptr noundef @.str.15, ptr noundef @.str.16) #8
  unreachable

30:                                               ; preds = %23
  br label %31

31:                                               ; preds = %30
  %32 = load i32, ptr %13, align 4
  %33 = sext i32 %32 to i64
  %34 = mul i64 %33, 8
  %35 = mul i64 %34, 4
  %36 = trunc i64 %35 to i32
  store i32 %36, ptr %15, align 4
  %37 = load i32, ptr %15, align 4
  %38 = sext i32 %37 to i64
  %39 = alloca i8, i64 %38, align 16
  store ptr %39, ptr %16, align 8
  %40 = load ptr, ptr %16, align 8
  %41 = load i32, ptr %13, align 4
  %42 = mul nsw i32 0, %41
  %43 = sext i32 %42 to i64
  %44 = getelementptr inbounds i64, ptr %40, i64 %43
  store ptr %44, ptr %17, align 8
  %45 = load ptr, ptr %16, align 8
  %46 = load i32, ptr %13, align 4
  %47 = mul nsw i32 1, %46
  %48 = sext i32 %47 to i64
  %49 = getelementptr inbounds i64, ptr %45, i64 %48
  store ptr %49, ptr %18, align 8
  %50 = load ptr, ptr %16, align 8
  %51 = load i32, ptr %13, align 4
  %52 = mul nsw i32 2, %51
  %53 = sext i32 %52 to i64
  %54 = getelementptr inbounds i64, ptr %50, i64 %53
  store ptr %54, ptr %19, align 8
  %55 = load ptr, ptr %16, align 8
  %56 = load i32, ptr %13, align 4
  %57 = mul nsw i32 3, %56
  %58 = sext i32 %57 to i64
  %59 = getelementptr inbounds i64, ptr %55, i64 %58
  store ptr %59, ptr %20, align 8
  %60 = load ptr, ptr %7, align 8
  %61 = load ptr, ptr %17, align 8
  %62 = load i32, ptr %13, align 4
  call void @_ZL13reverse_wordsPmS_i(ptr noundef %60, ptr noundef %61, i32 noundef %62)
  %63 = load ptr, ptr %8, align 8
  %64 = load ptr, ptr %18, align 8
  %65 = load i32, ptr %13, align 4
  call void @_ZL13reverse_wordsPmS_i(ptr noundef %63, ptr noundef %64, i32 noundef %65)
  %66 = load ptr, ptr %9, align 8
  %67 = load ptr, ptr %19, align 8
  %68 = load i32, ptr %13, align 4
  call void @_ZL13reverse_wordsPmS_i(ptr noundef %66, ptr noundef %67, i32 noundef %68)
  %69 = load ptr, ptr %17, align 8
  %70 = load ptr, ptr %18, align 8
  %71 = load ptr, ptr %19, align 8
  %72 = load ptr, ptr %20, align 8
  %73 = load i64, ptr %11, align 8
  %74 = load i32, ptr %13, align 4
  call void @_ZL19montgomery_multiplyPmS_S_S_mi(ptr noundef %69, ptr noundef %70, ptr noundef %71, ptr noundef %72, i64 noundef %73, i32 noundef %74)
  %75 = load ptr, ptr %20, align 8
  %76 = load ptr, ptr %12, align 8
  %77 = load i32, ptr %13, align 4
  call void @_ZL13reverse_wordsPmS_i(ptr noundef %75, ptr noundef %76, i32 noundef %77)
  ret void
}