; Function Attrs: mustprogress nounwind uwtable
define hidden void @_ZN13SharedRuntime19montgomery_multiplyEPiS0_S0_ilS0_(ptr nocapture noundef readonly %0, ptr nocapture noundef readonly %1, ptr nocapture noundef readonly %2, i32 noundef %3, i64 noundef %4, ptr nocapture noundef writeonly %5) local_unnamed_addr #0 align 2 {
  %7 = icmp slt i32 %3, 514
  br i1 %7, label %10, label %8

8:                                                ; preds = %6
  %9 = load ptr, ptr @g_assert_poison, align 8
  store i8 88, ptr %9, align 1
  tail call void (ptr, i32, ptr, ptr, ...) @_Z15report_vm_errorPKciS0_S0_z(ptr noundef nonnull @.str, i32 noundef 3620, ptr noundef nonnull @.str.15, ptr noundef nonnull @.str.16) #15
  unreachable

10:                                               ; preds = %6
  %11 = sdiv i32 %3, 2
  %12 = sext i32 %11 to i64
  %13 = shl i32 %11, 5
  %14 = sext i32 %13 to i64
  %15 = alloca i8, i64 %14, align 16
  %16 = getelementptr inbounds i64, ptr %15, i64 %12
  %17 = shl nsw i32 %11, 1
  %18 = sext i32 %17 to i64
  %19 = getelementptr inbounds i64, ptr %15, i64 %18
  %20 = mul nsw i32 %11, 3
  %21 = sext i32 %20 to i64
  %22 = getelementptr inbounds i64, ptr %15, i64 %21
  %23 = icmp sgt i32 %3, 1
  br i1 %23, label %.lr.ph.preheader.i, label %_ZL13reverse_wordsPmS_i.exit41.thread

.lr.ph.preheader.i:                               ; preds = %10
  %24 = zext nneg i32 %11 to i64
  %25 = getelementptr inbounds i64, ptr %15, i64 %24
  br label %.lr.ph.i

.lr.ph.i:                                         ; preds = %.lr.ph.i, %.lr.ph.preheader.i
  %.010.i = phi i32 [ %26, %.lr.ph.i ], [ %11, %.lr.ph.preheader.i ]
  %.069.i = phi ptr [ %27, %.lr.ph.i ], [ %25, %.lr.ph.preheader.i ]
  %.078.i = phi ptr [ %30, %.lr.ph.i ], [ %0, %.lr.ph.preheader.i ]
  %26 = add nsw i32 %.010.i, -1
  %27 = getelementptr inbounds i8, ptr %.069.i, i64 -8
  %28 = load i64, ptr %.078.i, align 8
  %29 = tail call noundef i64 @llvm.fshl.i64(i64 %28, i64 %28, i64 32)
  store i64 %29, ptr %27, align 8
  %30 = getelementptr inbounds i8, ptr %.078.i, i64 8
  %31 = icmp ugt i32 %.010.i, 1
  br i1 %31, label %.lr.ph.i, label %.lr.ph.preheader.i30, !llvm.loop !38

.lr.ph.preheader.i30:                             ; preds = %.lr.ph.i
  %32 = getelementptr inbounds i64, ptr %16, i64 %24
  br label %.lr.ph.i31

.lr.ph.i31:                                       ; preds = %.lr.ph.i31, %.lr.ph.preheader.i30
  %.010.i32 = phi i32 [ %33, %.lr.ph.i31 ], [ %11, %.lr.ph.preheader.i30 ]
  %.069.i33 = phi ptr [ %34, %.lr.ph.i31 ], [ %32, %.lr.ph.preheader.i30 ]
  %.078.i34 = phi ptr [ %37, %.lr.ph.i31 ], [ %1, %.lr.ph.preheader.i30 ]
  %33 = add nsw i32 %.010.i32, -1
  %34 = getelementptr inbounds i8, ptr %.069.i33, i64 -8
  %35 = load i64, ptr %.078.i34, align 8
  %36 = tail call noundef i64 @llvm.fshl.i64(i64 %35, i64 %35, i64 32)
  store i64 %36, ptr %34, align 8
  %37 = getelementptr inbounds i8, ptr %.078.i34, i64 8
  %38 = icmp ugt i32 %.010.i32, 1
  br i1 %38, label %.lr.ph.i31, label %.lr.ph.preheader.i36, !llvm.loop !38

.lr.ph.preheader.i36:                             ; preds = %.lr.ph.i31
  %39 = getelementptr inbounds i64, ptr %19, i64 %24
  br label %.lr.ph.i37

.lr.ph.i37:                                       ; preds = %.lr.ph.i37, %.lr.ph.preheader.i36
  %.010.i38 = phi i32 [ %40, %.lr.ph.i37 ], [ %11, %.lr.ph.preheader.i36 ]
  %.069.i39 = phi ptr [ %41, %.lr.ph.i37 ], [ %39, %.lr.ph.preheader.i36 ]
  %.078.i40 = phi ptr [ %44, %.lr.ph.i37 ], [ %2, %.lr.ph.preheader.i36 ]
  %40 = add nsw i32 %.010.i38, -1
  %41 = getelementptr inbounds i8, ptr %.069.i39, i64 -8
  %42 = load i64, ptr %.078.i40, align 8
  %43 = tail call noundef i64 @llvm.fshl.i64(i64 %42, i64 %42, i64 32)
  store i64 %43, ptr %41, align 8
  %44 = getelementptr inbounds i8, ptr %.078.i40, i64 8
  %45 = icmp ugt i32 %.010.i38, 1
  br i1 %45, label %.lr.ph.i37, label %_ZL13reverse_wordsPmS_i.exit41, !llvm.loop !38

_ZL13reverse_wordsPmS_i.exit41.thread:            ; preds = %10
  call fastcc void @_ZL19montgomery_multiplyPmS_S_S_mi(ptr noundef nonnull %15, ptr noundef nonnull %16, ptr noundef nonnull %19, ptr noundef nonnull %22, i64 noundef %4, i32 noundef %11)
  br label %_ZL13reverse_wordsPmS_i.exit47

_ZL13reverse_wordsPmS_i.exit41:                   ; preds = %.lr.ph.i37
  call fastcc void @_ZL19montgomery_multiplyPmS_S_S_mi(ptr noundef nonnull %15, ptr noundef nonnull %16, ptr noundef nonnull %19, ptr noundef nonnull %22, i64 noundef %4, i32 noundef %11)
  %46 = getelementptr inbounds i64, ptr %5, i64 %24
  br label %.lr.ph.i43

.lr.ph.i43:                                       ; preds = %.lr.ph.i43, %_ZL13reverse_wordsPmS_i.exit41
  %.010.i44 = phi i32 [ %47, %.lr.ph.i43 ], [ %11, %_ZL13reverse_wordsPmS_i.exit41 ]
  %.069.i45 = phi ptr [ %48, %.lr.ph.i43 ], [ %46, %_ZL13reverse_wordsPmS_i.exit41 ]
  %.078.i46 = phi ptr [ %51, %.lr.ph.i43 ], [ %22, %_ZL13reverse_wordsPmS_i.exit41 ]
  %47 = add nsw i32 %.010.i44, -1
  %48 = getelementptr inbounds i8, ptr %.069.i45, i64 -8
  %49 = load i64, ptr %.078.i46, align 8
  %50 = call noundef i64 @llvm.fshl.i64(i64 %49, i64 %49, i64 32)
  store i64 %50, ptr %48, align 8
  %51 = getelementptr inbounds i8, ptr %.078.i46, i64 8
  %52 = icmp ugt i32 %.010.i44, 1
  br i1 %52, label %.lr.ph.i43, label %_ZL13reverse_wordsPmS_i.exit47, !llvm.loop !38

_ZL13reverse_wordsPmS_i.exit47:                   ; preds = %.lr.ph.i43, %_ZL13reverse_wordsPmS_i.exit41.thread
  ret void
}